; Function Attrs: nounwind uwtable
define ptr @l_Lean_SMap_fold___at_Lean_KeyedDeclsAttribute_mkStateOfTable___spec__2___rarg(ptr noundef %0, ptr noundef %1, ptr noundef readonly captures(none) %2) local_unnamed_addr #1 {
lean_nat_lt.exit:
  %3 = getelementptr inbounds nuw i8, ptr %2, i64 8
  %4 = getelementptr inbounds nuw i8, ptr %2, i64 16
  %5 = load ptr, ptr %4, align 8, !tbaa !9
  %6 = load ptr, ptr %3, align 8, !tbaa !9
  %7 = getelementptr inbounds nuw i8, ptr %6, i64 16
  %8 = load ptr, ptr %7, align 8, !tbaa !9
  %9 = getelementptr i8, ptr %8, i64 8
  %.val = load i64, ptr %9, align 8, !tbaa !12
  %.mask = and i64 %.val, 9223372036854775807
  %.not = icmp eq i64 %.mask, 0
  br i1 %.not, label %lean_dec.exit33, label %lean_dec.exit

lean_dec.exit:                                    ; preds = %lean_nat_lt.exit
  %10 = ptrtoint ptr %0 to i64
  %11 = and i64 %10, 1
  %.not42 = icmp eq i64 %11, 0
  br i1 %.not42, label %12, label %lean_inc.exit

12:                                               ; preds = %lean_dec.exit
  %.val.i = load i32, ptr %0, align 4, !tbaa !4
  %13 = icmp sgt i32 %.val.i, 0
  br i1 %13, label %14, label %16, !prof !11

14:                                               ; preds = %12
  %15 = add nuw i32 %.val.i, 1
  store i32 %15, ptr %0, align 4, !tbaa !4
  br label %lean_inc.exit

16:                                               ; preds = %12
  %.not.i41 = icmp eq i32 %.val.i, 0
  br i1 %.not.i41, label %lean_inc.exit, label %17

17:                                               ; preds = %16
  tail call void @lean_inc_ref_cold(ptr noundef nonnull %0) #6
  br label %lean_inc.exit

lean_inc.exit:                                    ; preds = %17, %16, %14, %lean_dec.exit
  %18 = tail call ptr @l_Array_foldlMUnsafe_fold___at_Lean_KeyedDeclsAttribute_mkStateOfTable___spec__6___rarg(ptr noundef %0, ptr noundef nonnull %8, i64 noundef 0, i64 noundef %.mask, ptr noundef %1)
  br label %lean_dec.exit33

lean_dec.exit33:                                  ; preds = %lean_nat_lt.exit, %lean_inc.exit
  %.sink = phi ptr [ %18, %lean_inc.exit ], [ %1, %lean_nat_lt.exit ]
  %19 = tail call ptr @l_Lean_PersistentHashMap_foldlMAux___at_Lean_Environment_dbgFormatAsyncState___spec__25___rarg(ptr noundef %0, ptr noundef %5, ptr noundef %.sink) #6
  ret ptr %19
}